ccopy_reg
_reconstructor
p0
(csklearn.linear_model.logistic
LogisticRegression
p1
c__builtin__
object
p2
Ntp3
Rp4
(dp5
S'warm_start'
p6
I00
sS'C'
p7
F1.0
sS'max_iter'
p8
I100
sS'verbose'
p9
I0
sS'intercept_scaling'
p10
I1
sS'dual'
p11
I00
sS'fit_intercept'
p12
I01
sS'classes_'
p13
cnumpy.core.multiarray
_reconstruct
p14
(cnumpy
ndarray
p15
(I0
tp16
S'b'
p17
tp18
Rp19
(I1
(I2
tp20
cnumpy
dtype
p21
(S'b1'
p22
I0
I1
tp23
Rp24
(I3
S'|'
p25
NNNI-1
I-1
I0
tp26
bI00
S'\x00\x01'
p27
tp28
bsS'solver'
p29
S'liblinear'
p30
sS'n_iter_'
p31
g14
(g15
(I0
tp32
g17
tp33
Rp34
(I1
(I1
tp35
g21
(S'i4'
p36
I0
I1
tp37
Rp38
(I3
S'<'
p39
NNNI-1
I-1
I0
tp40
bI00
S'&\x00\x00\x00'
p41
tp42
bsS'penalty'
p43
S'l1'
p44
sS'multi_class'
p45
S'ovr'
p46
sS'random_state'
p47
NsS'tol'
p48
F1e-06
sS'n_jobs'
p49
I1
sS'coef_'
p50
g14
(g15
(I0
tp51
g17
tp52
Rp53
(I1
(I1
I6
tp54
g21
(S'f8'
p55
I0
I1
tp56
Rp57
(I3
S'<'
p58
NNNI-1
I-1
I0
tp59
bI00
S'\x86z\x0e\xa7\xbf\x92\x03\xc0\x00\x00\x00\x00\x00\x00\x00\x00\x90;/\xa5\xb3\xa3\xd7?\xa0\x99\xf6^Ea\x05@\x14XB<\xa6\xc2\x86\xbf\x13\x84h\xaa\x1e\xe9\xd5\xbf'
p60
tp61
bsS'intercept_'
p62
g14
(g15
(I0
tp63
g17
tp64
Rp65
(I1
(I1
tp66
g57
I00
S'\x00\x00\x00\x00\x00\x00\x00\x00'
p67
tp68
bsS'class_weight'
p69
Nsb.